target datalayout = "e-m:e-p270:32:32-p271:32:32-p272:64:64-i64:64-i128:128-f80:128-n8:16:32:64-S128"
target triple = "x86_64-pc-linux-gnu"

@.str.16 = private unnamed_addr constant [39 x i8] c"optional boolean argument is obsoleted\00", align 1

; Function Attrs: nounwind sspstrong uwtable
define internal i64 @rb_mod_attr_reader(i32 noundef %0, ptr noundef %1, i64 noundef %2) #0 {
  %4 = alloca i32, align 4
  %5 = alloca ptr, align 8
  %6 = alloca i64, align 8
  %7 = alloca i32, align 4
  %8 = alloca i64, align 8
  %9 = alloca i64, align 8
  store i32 %0, ptr %4, align 4, !tbaa !7
  store ptr %1, ptr %5, align 8, !tbaa !36
  store i64 %2, ptr %6, align 8, !tbaa !11
  call void @llvm.lifetime.start.p0(i64 4, ptr %7) #28
  call void @llvm.lifetime.start.p0(i64 8, ptr %8) #28
  %10 = load i32, ptr %4, align 4, !tbaa !7
  %11 = sext i32 %10 to i64
  %12 = call i64 @rb_ary_new_capa(i64 noundef %11)
  store i64 %12, ptr %8, align 8, !tbaa !11
  store i32 0, ptr %7, align 4, !tbaa !7
  br label %13

13:                                               ; preds = %31, %3
  %14 = load i32, ptr %7, align 4, !tbaa !7
  %15 = load i32, ptr %4, align 4, !tbaa !7
  %16 = icmp slt i32 %14, %15
  br i1 %16, label %17, label %34

17:                                               ; preds = %13
  call void @llvm.lifetime.start.p0(i64 8, ptr %9) #28
  %18 = load i64, ptr %6, align 8, !tbaa !11
  %19 = load ptr, ptr %5, align 8, !tbaa !36
  %20 = load i32, ptr %7, align 4, !tbaa !7
  %21 = sext i32 %20 to i64
  %22 = getelementptr i64, ptr %19, i64 %21
  %23 = load i64, ptr %22, align 8, !tbaa !11
  %24 = call i64 @id_for_attr(i64 noundef %18, i64 noundef %23)
  store i64 %24, ptr %9, align 8, !tbaa !11
  %25 = load i64, ptr %6, align 8, !tbaa !11
  %26 = load i64, ptr %9, align 8, !tbaa !11
  call void @rb_attr(i64 noundef %25, i64 noundef %26, i32 noundef 1, i32 noundef 0, i32 noundef 1)
  %27 = load i64, ptr %8, align 8, !tbaa !11
  %28 = load i64, ptr %9, align 8, !tbaa !11
  %29 = call i64 @rb_id2sym(i64 noundef %28)
  %30 = call i64 @rb_ary_push(i64 noundef %27, i64 noundef %29)
  call void @llvm.lifetime.end.p0(i64 8, ptr %9) #28
  br label %31

31:                                               ; preds = %17
  %32 = load i32, ptr %7, align 4, !tbaa !7
  %33 = add i32 %32, 1
  store i32 %33, ptr %7, align 4, !tbaa !7
  br label %13, !llvm.loop !67

34:                                               ; preds = %13
  %35 = load i64, ptr %8, align 8, !tbaa !11
  call void @llvm.lifetime.end.p0(i64 8, ptr %8) #28
  call void @llvm.lifetime.end.p0(i64 4, ptr %7) #28
  ret i64 %35
}

; Function Attrs: inlinehint nounwind sspstrong willreturn memory(none) uwtable
define internal zeroext i1 @RB_TEST(i64 noundef %0) #1 {
  %2 = alloca i64, align 8
  store i64 %0, ptr %2, align 8, !tbaa !11
  %3 = load i64, ptr %2, align 8, !tbaa !11
  %4 = and i64 %3, -5
  %5 = icmp ne i64 %4, 0
  ret i1 %5
}

; Function Attrs: nounwind sspstrong uwtable
define hidden i64 @rb_mod_attr(i32 noundef %0, ptr noundef %1, i64 noundef %2) #0 {
  %4 = alloca i64, align 8
  %5 = alloca i32, align 4
  %6 = alloca ptr, align 8
  %7 = alloca i64, align 8
  %8 = alloca i64, align 8
  %9 = alloca i64, align 8
  store i32 %0, ptr %5, align 4, !tbaa !7
  store ptr %1, ptr %6, align 8, !tbaa !36
  store i64 %2, ptr %7, align 8, !tbaa !11
  %10 = load i32, ptr %5, align 4, !tbaa !7
  %11 = icmp eq i32 %10, 2
  br i1 %11, label %12, label %52

12:                                               ; preds = %3
  %13 = load ptr, ptr %6, align 8, !tbaa !36
  %14 = getelementptr i64, ptr %13, i64 1
  %15 = load i64, ptr %14, align 8, !tbaa !11
  %16 = icmp eq i64 %15, 20
  br i1 %16, label %22, label %17

17:                                               ; preds = %12
  %18 = load ptr, ptr %6, align 8, !tbaa !36
  %19 = getelementptr i64, ptr %18, i64 1
  %20 = load i64, ptr %19, align 8, !tbaa !11
  %21 = icmp eq i64 %20, 0
  br i1 %21, label %22, label %52

22:                                               ; preds = %17, %12
  call void @llvm.lifetime.start.p0(i64 8, ptr %8) #28
  %23 = load i64, ptr %7, align 8, !tbaa !11
  %24 = load ptr, ptr %6, align 8, !tbaa !36
  %25 = getelementptr i64, ptr %24, i64 0
  %26 = load i64, ptr %25, align 8, !tbaa !11
  %27 = call i64 @id_for_attr(i64 noundef %23, i64 noundef %26)
  store i64 %27, ptr %8, align 8, !tbaa !11
  call void @llvm.lifetime.start.p0(i64 8, ptr %9) #28
  %28 = call i64 @rb_ary_new()
  store i64 %28, ptr %9, align 8, !tbaa !11
  call void (i32, ptr, ...) @rb_category_warning(i32 noundef 1, ptr noundef @.str.16)
  %29 = load i64, ptr %7, align 8, !tbaa !11
  %30 = load i64, ptr %8, align 8, !tbaa !11
  %31 = load ptr, ptr %6, align 8, !tbaa !36
  %32 = getelementptr i64, ptr %31, i64 1
  %33 = load i64, ptr %32, align 8, !tbaa !11
  %34 = call zeroext i1 @RB_TEST(i64 noundef %33) #27
  %35 = zext i1 %34 to i32
  call void @rb_attr(i64 noundef %29, i64 noundef %30, i32 noundef 1, i32 noundef %35, i32 noundef 1)
  %36 = load i64, ptr %9, align 8, !tbaa !11
  %37 = load i64, ptr %8, align 8, !tbaa !11
  %38 = call i64 @rb_id2sym(i64 noundef %37)
  %39 = call i64 @rb_ary_push(i64 noundef %36, i64 noundef %38)
  %40 = load ptr, ptr %6, align 8, !tbaa !36
  %41 = getelementptr i64, ptr %40, i64 1
  %42 = load i64, ptr %41, align 8, !tbaa !11
  %43 = icmp eq i64 %42, 20
  br i1 %43, label %44, label %50

44:                                               ; preds = %22
  %45 = load i64, ptr %9, align 8, !tbaa !11
  %46 = load i64, ptr %8, align 8, !tbaa !11
  %47 = call i64 @rb_id_attrset(i64 noundef %46)
  %48 = call i64 @rb_id2sym(i64 noundef %47)
  %49 = call i64 @rb_ary_push(i64 noundef %45, i64 noundef %48)
  br label %50

50:                                               ; preds = %44, %22
  %51 = load i64, ptr %9, align 8, !tbaa !11
  store i64 %51, ptr %4, align 8
  call void @llvm.lifetime.end.p0(i64 8, ptr %9) #28
  call void @llvm.lifetime.end.p0(i64 8, ptr %8) #28
  br label %57

52:                                               ; preds = %17, %3
  %53 = load i32, ptr %5, align 4, !tbaa !7
  %54 = load ptr, ptr %6, align 8, !tbaa !36
  %55 = load i64, ptr %7, align 8, !tbaa !11
  %56 = call i64 @rb_mod_attr_reader(i32 noundef %53, ptr noundef %54, i64 noundef %55)
  store i64 %56, ptr %4, align 8
  br label %57

57:                                               ; preds = %52, %50
  %58 = load i64, ptr %4, align 8
  ret i64 %58
}