; Function Attrs: nounwind sspstrong uwtable
define hidden i64 @rb_mod_attr(i32 noundef %0, ptr noundef readonly captures(none) %1, i64 noundef %2) #2 {
  %4 = icmp eq i32 %0, 2
  br i1 %4, label %13, label %.split

.split:                                           ; preds = %3
  %5 = sext i32 %0 to i64
  %6 = tail call i64 @rb_ary_new_capa(i64 noundef %5) #23
  %7 = icmp sgt i32 %0, 0
  br i1 %7, label %.lr.ph.preheader.i, label %rb_mod_attr_reader.exit

.lr.ph.preheader.i:                               ; preds = %.split
  %wide.trip.count.i = zext nneg i32 %0 to i64
  br label %.lr.ph.i

.lr.ph.i:                                         ; preds = %.lr.ph.i, %.lr.ph.preheader.i
  %indvars.iv.i = phi i64 [ 0, %.lr.ph.preheader.i ], [ %indvars.iv.next.i, %.lr.ph.i ]
  %8 = getelementptr i64, ptr %1, i64 %indvars.iv.i
  %9 = load i64, ptr %8, align 8, !tbaa !7
  %10 = tail call fastcc i64 @id_for_attr(i64 noundef %2, i64 noundef %9)
  tail call void @rb_attr(i64 noundef %2, i64 noundef %10, i32 noundef 1, i32 noundef 0, i32 noundef 1) #23
  %11 = tail call i64 @rb_id2sym(i64 noundef %10) #23
  %12 = tail call i64 @rb_ary_push(i64 noundef %6, i64 noundef %11) #23
  %indvars.iv.next.i = add nuw nsw i64 %indvars.iv.i, 1
  %exitcond.not.i = icmp eq i64 %indvars.iv.next.i, %wide.trip.count.i
  br i1 %exitcond.not.i, label %rb_mod_attr_reader.exit, label %.lr.ph.i, !llvm.loop !53

13:                                               ; preds = %3
  %14 = getelementptr i8, ptr %1, i64 8
  %15 = load i64, ptr %14, align 8, !tbaa !7
  switch i64 %15, label %.split17 [
    i64 20, label %22
    i64 0, label %22
  ]

.split17:                                         ; preds = %13
  %16 = tail call i64 @rb_ary_new_capa(i64 noundef 2) #23
  br label %.lr.ph.i21

.lr.ph.i21:                                       ; preds = %.lr.ph.i21, %.split17
  %indvars.iv.i22 = phi i64 [ 0, %.split17 ], [ %indvars.iv.next.i23, %.lr.ph.i21 ]
  %17 = getelementptr i64, ptr %1, i64 %indvars.iv.i22
  %18 = load i64, ptr %17, align 8, !tbaa !7
  %19 = tail call fastcc i64 @id_for_attr(i64 noundef %2, i64 noundef %18)
  tail call void @rb_attr(i64 noundef %2, i64 noundef %19, i32 noundef 1, i32 noundef 0, i32 noundef 1) #23
  %20 = tail call i64 @rb_id2sym(i64 noundef %19) #23
  %21 = tail call i64 @rb_ary_push(i64 noundef %16, i64 noundef %20) #23
  %indvars.iv.next.i23 = add nuw nsw i64 %indvars.iv.i22, 1
  %exitcond.not.i24 = icmp eq i64 %indvars.iv.next.i23, 2
  br i1 %exitcond.not.i24, label %rb_mod_attr_reader.exit, label %.lr.ph.i21, !llvm.loop !53

22:                                               ; preds = %13, %13
  %23 = load i64, ptr %1, align 8, !tbaa !7
  %24 = tail call fastcc i64 @id_for_attr(i64 noundef %2, i64 noundef %23)
  %25 = tail call i64 @rb_ary_new() #23
  tail call void (i32, ptr, ...) @rb_category_warning(i32 noundef 1, ptr noundef nonnull @.str.16) #23
  %26 = load i64, ptr %14, align 8, !tbaa !7
  %27 = and i64 %26, -5
  %28 = icmp ne i64 %27, 0
  %29 = zext i1 %28 to i32
  tail call void @rb_attr(i64 noundef %2, i64 noundef %24, i32 noundef 1, i32 noundef %29, i32 noundef 1) #23
  %30 = tail call i64 @rb_id2sym(i64 noundef %24) #23
  %31 = tail call i64 @rb_ary_push(i64 noundef %25, i64 noundef %30) #23
  %32 = load i64, ptr %14, align 8, !tbaa !7
  %33 = icmp eq i64 %32, 20
  br i1 %33, label %34, label %rb_mod_attr_reader.exit

34:                                               ; preds = %22
  %35 = tail call i64 @rb_id_attrset(i64 noundef %24) #23
  %36 = tail call i64 @rb_id2sym(i64 noundef %35) #23
  %37 = tail call i64 @rb_ary_push(i64 noundef %25, i64 noundef %36) #23
  br label %rb_mod_attr_reader.exit

rb_mod_attr_reader.exit:                          ; preds = %.lr.ph.i, %.lr.ph.i21, %.split, %22, %34
  %.0 = phi i64 [ %25, %34 ], [ %25, %22 ], [ %6, %.split ], [ %16, %.lr.ph.i21 ], [ %6, %.lr.ph.i ]
  ret i64 %.0
}